target datalayout = "e-m:e-p270:32:32-p271:32:32-p272:64:64-i64:64-i128:128-f80:128-n8:16:32:64-S128"
target triple = "x86_64-pc-linux-gnu"

%"class.Imath_3_2::Box" = type { %"class.Imath_3_2::Vec2", %"class.Imath_3_2::Vec2" }
%"class.Imath_3_2::Vec2" = type { i32, i32 }
%"class.Imath_3_2::Vec2.32" = type { float, float }
%"class.Imf_3_4::RgbaOutputFile" = type { ptr, ptr, ptr }

; Function Attrs: inlinehint mustprogress nounwind uwtable
define linkonce_odr dso_local noundef nonnull align 4 dereferenceable(8) ptr @_ZN9Imath_3_24Vec2IiEaSERKS1_(ptr noundef nonnull align 4 dereferenceable(8) %0, ptr noundef nonnull align 4 dereferenceable(8) %1) #10 comdat align 2 {
  %3 = alloca ptr, align 8
  %4 = alloca ptr, align 8
  store ptr %0, ptr %3, align 8, !tbaa !176
  store ptr %1, ptr %4, align 8, !tbaa !176
  %5 = load ptr, ptr %3, align 8
  %6 = load ptr, ptr %4, align 8, !tbaa !176
  %7 = getelementptr inbounds nuw %"class.Imath_3_2::Vec2", ptr %6, i32 0, i32 0
  %8 = load i32, ptr %7, align 4, !tbaa !178
  %9 = getelementptr inbounds nuw %"class.Imath_3_2::Vec2", ptr %5, i32 0, i32 0
  store i32 %8, ptr %9, align 4, !tbaa !178
  %10 = load ptr, ptr %4, align 8, !tbaa !176
  %11 = getelementptr inbounds nuw %"class.Imath_3_2::Vec2", ptr %10, i32 0, i32 1
  %12 = load i32, ptr %11, align 4, !tbaa !179
  %13 = getelementptr inbounds nuw %"class.Imath_3_2::Vec2", ptr %5, i32 0, i32 1
  store i32 %12, ptr %13, align 4, !tbaa !179
  ret ptr %5
}

; Function Attrs: inlinehint mustprogress nounwind uwtable
define linkonce_odr dso_local void @_ZN9Imath_3_24Vec2IiEC2Ev(ptr noundef nonnull align 4 dereferenceable(8) %0) unnamed_addr #10 comdat align 2 {
  %2 = alloca ptr, align 8
  store ptr %0, ptr %2, align 8, !tbaa !176
  ret void
}

; Function Attrs: inlinehint mustprogress nounwind uwtable
define linkonce_odr dso_local void @_ZN9Imath_3_24Vec2IfEC2Eff(ptr noundef nonnull align 4 dereferenceable(8) %0, float noundef %1, float noundef %2) unnamed_addr #10 comdat align 2 {
  %4 = alloca ptr, align 8
  %5 = alloca float, align 4
  %6 = alloca float, align 4
  store ptr %0, ptr %4, align 8, !tbaa !154
  store float %1, ptr %5, align 4, !tbaa !46
  store float %2, ptr %6, align 4, !tbaa !46
  %7 = load ptr, ptr %4, align 8
  %8 = getelementptr inbounds nuw %"class.Imath_3_2::Vec2.32", ptr %7, i32 0, i32 0
  %9 = load float, ptr %5, align 4, !tbaa !46
  store float %9, ptr %8, align 4, !tbaa !156
  %10 = getelementptr inbounds nuw %"class.Imath_3_2::Vec2.32", ptr %7, i32 0, i32 1
  %11 = load float, ptr %6, align 4, !tbaa !46
  store float %11, ptr %10, align 4, !tbaa !158
  ret void
}

; Function Attrs: inlinehint mustprogress nounwind uwtable
define linkonce_odr dso_local void @_ZN9Imath_3_23BoxINS_4Vec2IiEEEC2ERKS2_S5_(ptr noundef nonnull align 4 dereferenceable(16) %0, ptr noundef nonnull align 4 dereferenceable(8) %1, ptr noundef nonnull align 4 dereferenceable(8) %2) unnamed_addr #10 comdat align 2 {
  %4 = alloca ptr, align 8
  %5 = alloca ptr, align 8
  %6 = alloca ptr, align 8
  store ptr %0, ptr %4, align 8, !tbaa !50
  store ptr %1, ptr %5, align 8, !tbaa !176
  store ptr %2, ptr %6, align 8, !tbaa !176
  %7 = load ptr, ptr %4, align 8
  %8 = getelementptr inbounds nuw %"class.Imath_3_2::Box", ptr %7, i32 0, i32 0
  call void @_ZN9Imath_3_24Vec2IiEC2Ev(ptr noundef nonnull align 4 dereferenceable(8) %8) #3
  %9 = getelementptr inbounds nuw %"class.Imath_3_2::Box", ptr %7, i32 0, i32 1
  call void @_ZN9Imath_3_24Vec2IiEC2Ev(ptr noundef nonnull align 4 dereferenceable(8) %9) #3
  %10 = load ptr, ptr %5, align 8, !tbaa !176
  %11 = getelementptr inbounds nuw %"class.Imath_3_2::Box", ptr %7, i32 0, i32 0
  %12 = call noundef nonnull align 4 dereferenceable(8) ptr @_ZN9Imath_3_24Vec2IiEaSERKS1_(ptr noundef nonnull align 4 dereferenceable(8) %11, ptr noundef nonnull align 4 dereferenceable(8) %10) #3
  %13 = load ptr, ptr %6, align 8, !tbaa !176
  %14 = getelementptr inbounds nuw %"class.Imath_3_2::Box", ptr %7, i32 0, i32 1
  %15 = call noundef nonnull align 4 dereferenceable(8) ptr @_ZN9Imath_3_24Vec2IiEaSERKS1_(ptr noundef nonnull align 4 dereferenceable(8) %14, ptr noundef nonnull align 4 dereferenceable(8) %13) #3
  ret void
}

; Function Attrs: inlinehint mustprogress nounwind uwtable
define linkonce_odr dso_local void @_ZN9Imath_3_24Vec2IiEC2Eii(ptr noundef nonnull align 4 dereferenceable(8) %0, i32 noundef %1, i32 noundef %2) unnamed_addr #10 comdat align 2 {
  %4 = alloca ptr, align 8
  %5 = alloca i32, align 4
  %6 = alloca i32, align 4
  store ptr %0, ptr %4, align 8, !tbaa !176
  store i32 %1, ptr %5, align 4, !tbaa !13
  store i32 %2, ptr %6, align 4, !tbaa !13
  %7 = load ptr, ptr %4, align 8
  %8 = getelementptr inbounds nuw %"class.Imath_3_2::Vec2", ptr %7, i32 0, i32 0
  %9 = load i32, ptr %5, align 4, !tbaa !13
  store i32 %9, ptr %8, align 4, !tbaa !178
  %10 = getelementptr inbounds nuw %"class.Imath_3_2::Vec2", ptr %7, i32 0, i32 1
  %11 = load i32, ptr %6, align 4, !tbaa !13
  store i32 %11, ptr %10, align 4, !tbaa !179
  ret void
}

; Function Attrs: mustprogress uwtable
define dso_local void @_Z10writeRgba2PKcPKN7Imf_3_44RgbaEiiRKN9Imath_3_23BoxINS5_4Vec2IiEEEE(ptr noundef %0, ptr noundef %1, i32 noundef %2, i32 noundef %3, ptr noundef nonnull align 4 dereferenceable(16) %4) #6 personality ptr @__gxx_personality_v0 {
  %6 = alloca ptr, align 8
  %7 = alloca ptr, align 8
  %8 = alloca i32, align 4
  %9 = alloca i32, align 4
  %10 = alloca ptr, align 8
  %11 = alloca %"class.Imath_3_2::Box", align 4
  %12 = alloca %"class.Imath_3_2::Vec2", align 4
  %13 = alloca %"class.Imath_3_2::Vec2", align 4
  %14 = alloca %"class.Imf_3_4::RgbaOutputFile", align 8
  %15 = alloca %"class.Imath_3_2::Vec2.32", align 4
  %16 = alloca ptr, align 8
  %17 = alloca i32, align 4
  store ptr %0, ptr %6, align 8, !tbaa !11
  store ptr %1, ptr %7, align 8, !tbaa !138
  store i32 %2, ptr %8, align 4, !tbaa !13
  store i32 %3, ptr %9, align 4, !tbaa !13
  store ptr %4, ptr %10, align 8, !tbaa !50
  call void @llvm.lifetime.start.p0(i64 16, ptr %11) #3
  call void @llvm.lifetime.start.p0(i64 8, ptr %12) #3
  call void @_ZN9Imath_3_24Vec2IiEC2Eii(ptr noundef nonnull align 4 dereferenceable(8) %12, i32 noundef 0, i32 noundef 0) #3
  call void @llvm.lifetime.start.p0(i64 8, ptr %13) #3
  %18 = load i32, ptr %8, align 4, !tbaa !13
  %19 = sub nsw i32 %18, 1
  %20 = load i32, ptr %9, align 4, !tbaa !13
  %21 = sub nsw i32 %20, 1
  call void @_ZN9Imath_3_24Vec2IiEC2Eii(ptr noundef nonnull align 4 dereferenceable(8) %13, i32 noundef %19, i32 noundef %21) #3
  call void @_ZN9Imath_3_23BoxINS_4Vec2IiEEEC2ERKS2_S5_(ptr noundef nonnull align 4 dereferenceable(16) %11, ptr noundef nonnull align 4 dereferenceable(8) %12, ptr noundef nonnull align 4 dereferenceable(8) %13) #3
  call void @llvm.lifetime.end.p0(i64 8, ptr %13) #3
  call void @llvm.lifetime.end.p0(i64 8, ptr %12) #3
  call void @llvm.lifetime.start.p0(i64 24, ptr %14) #3
  %22 = load ptr, ptr %6, align 8, !tbaa !11
  %23 = load ptr, ptr %10, align 8, !tbaa !50
  call void @_ZN9Imath_3_24Vec2IfEC2Eff(ptr noundef nonnull align 4 dereferenceable(8) %15, float noundef 0.000000e+00, float noundef 0.000000e+00) #3
  %24 = call noundef i32 @_ZN7Imf_3_417globalThreadCountEv()
  call void @_ZN7Imf_3_414RgbaOutputFileC1EPKcRKN9Imath_3_23BoxINS3_4Vec2IiEEEES9_NS_12RgbaChannelsEfNS5_IfEEfNS_9LineOrderENS_11CompressionEi(ptr noundef nonnull align 8 dereferenceable(24) %14, ptr noundef %22, ptr noundef nonnull align 4 dereferenceable(16) %11, ptr noundef nonnull align 4 dereferenceable(16) %23, i32 noundef 15, float noundef 1.000000e+00, ptr noundef %15, float noundef 1.000000e+00, i32 noundef 0, i32 noundef 4, i32 noundef %24)
  %25 = load ptr, ptr %7, align 8, !tbaa !138
  %26 = load i32, ptr %8, align 4, !tbaa !13
  %27 = sext i32 %26 to i64
  invoke void @_ZN7Imf_3_414RgbaOutputFile14setFrameBufferEPKNS_4RgbaEmm(ptr noundef nonnull align 8 dereferenceable(24) %14, ptr noundef %25, i64 noundef 1, i64 noundef %27)
          to label %28 unwind label %40

28:                                               ; preds = %5
  %29 = load ptr, ptr %10, align 8, !tbaa !50
  %30 = getelementptr inbounds nuw %"class.Imath_3_2::Box", ptr %29, i32 0, i32 1
  %31 = getelementptr inbounds nuw %"class.Imath_3_2::Vec2", ptr %30, i32 0, i32 1
  %32 = load i32, ptr %31, align 4, !tbaa !58
  %33 = load ptr, ptr %10, align 8, !tbaa !50
  %34 = getelementptr inbounds nuw %"class.Imath_3_2::Box", ptr %33, i32 0, i32 0
  %35 = getelementptr inbounds nuw %"class.Imath_3_2::Vec2", ptr %34, i32 0, i32 1
  %36 = load i32, ptr %35, align 4, !tbaa !59
  %37 = sub nsw i32 %32, %36
  %38 = add nsw i32 %37, 1
  invoke void @_ZN7Imf_3_414RgbaOutputFile11writePixelsEi(ptr noundef nonnull align 8 dereferenceable(24) %14, i32 noundef %38)
          to label %39 unwind label %40

39:                                               ; preds = %28
  call void @_ZN7Imf_3_414RgbaOutputFileD1Ev(ptr noundef nonnull align 8 dereferenceable(24) %14) #3
  call void @llvm.lifetime.end.p0(i64 24, ptr %14) #3
  call void @llvm.lifetime.end.p0(i64 16, ptr %11) #3
  ret void

40:                                               ; preds = %28, %5
  %41 = landingpad { ptr, i32 }
          cleanup
  %42 = extractvalue { ptr, i32 } %41, 0
  store ptr %42, ptr %16, align 8
  %43 = extractvalue { ptr, i32 } %41, 1
  store i32 %43, ptr %17, align 4
  call void @_ZN7Imf_3_414RgbaOutputFileD1Ev(ptr noundef nonnull align 8 dereferenceable(24) %14) #3
  call void @llvm.lifetime.end.p0(i64 24, ptr %14) #3
  call void @llvm.lifetime.end.p0(i64 16, ptr %11) #3
  br label %44

44:                                               ; preds = %40
  %45 = load ptr, ptr %16, align 8
  %46 = load i32, ptr %17, align 4
  %47 = insertvalue { ptr, i32 } poison, ptr %45, 0
  %48 = insertvalue { ptr, i32 } %47, i32 %46, 1
  resume { ptr, i32 } %48
}