; Function Attrs: mustprogress uwtable
define dso_local void @_Z10writeRgba2PKcPKN7Imf_3_44RgbaEiiRKN9Imath_3_23BoxINS5_4Vec2IiEEEE(ptr noundef %0, ptr noundef %1, i32 noundef %2, i32 noundef %3, ptr noundef nonnull align 4 dereferenceable(16) %4) local_unnamed_addr #8 personality ptr @__gxx_personality_v0 {
  %6 = alloca %"class.Imath_3_2::Box", align 4
  %7 = alloca %"class.Imf_3_4::RgbaOutputFile", align 8
  %8 = alloca %"class.Imath_3_2::Vec2.32", align 4
  call void @llvm.lifetime.start.p0(i64 16, ptr nonnull %6) #36
  %9 = add nsw i32 %2, -1
  %10 = add nsw i32 %3, -1
  %11 = getelementptr inbounds nuw i8, ptr %6, i64 8
  store i32 0, ptr %6, align 4, !tbaa !60
  %12 = getelementptr inbounds nuw i8, ptr %6, i64 4
  store i32 0, ptr %12, align 4, !tbaa !62
  store i32 %9, ptr %11, align 4, !tbaa !60
  %13 = getelementptr inbounds nuw i8, ptr %6, i64 12
  store i32 %10, ptr %13, align 4, !tbaa !62
  call void @llvm.lifetime.start.p0(i64 24, ptr nonnull %7) #36
  store float 0.000000e+00, ptr %8, align 4, !tbaa !157
  %14 = getelementptr inbounds nuw i8, ptr %8, i64 4
  store float 0.000000e+00, ptr %14, align 4, !tbaa !159
  %15 = tail call noundef i32 @_ZN7Imf_3_417globalThreadCountEv()
  call void @_ZN7Imf_3_414RgbaOutputFileC1EPKcRKN9Imath_3_23BoxINS3_4Vec2IiEEEES9_NS_12RgbaChannelsEfNS5_IfEEfNS_9LineOrderENS_11CompressionEi(ptr noundef nonnull align 8 dereferenceable(24) %7, ptr noundef %0, ptr noundef nonnull align 4 dereferenceable(16) %6, ptr noundef nonnull align 4 dereferenceable(16) %4, i32 noundef 15, float noundef 1.000000e+00, ptr noundef nonnull %8, float noundef 1.000000e+00, i32 noundef 0, i32 noundef 4, i32 noundef %15)
  %16 = sext i32 %2 to i64
  invoke void @_ZN7Imf_3_414RgbaOutputFile14setFrameBufferEPKNS_4RgbaEmm(ptr noundef nonnull align 8 dereferenceable(24) %7, ptr noundef %1, i64 noundef 1, i64 noundef %16)
          to label %17 unwind label %25

17:                                               ; preds = %5
  %18 = getelementptr inbounds nuw i8, ptr %4, i64 12
  %19 = load i32, ptr %18, align 4, !tbaa !66
  %20 = getelementptr inbounds nuw i8, ptr %4, i64 4
  %21 = load i32, ptr %20, align 4, !tbaa !67
  %22 = add i32 %19, 1
  %23 = sub i32 %22, %21
  invoke void @_ZN7Imf_3_414RgbaOutputFile11writePixelsEi(ptr noundef nonnull align 8 dereferenceable(24) %7, i32 noundef %23)
          to label %24 unwind label %25

24:                                               ; preds = %17
  call void @_ZN7Imf_3_414RgbaOutputFileD1Ev(ptr noundef nonnull align 8 dereferenceable(24) %7) #36
  call void @llvm.lifetime.end.p0(i64 24, ptr nonnull %7) #36
  call void @llvm.lifetime.end.p0(i64 16, ptr nonnull %6) #36
  ret void

25:                                               ; preds = %17, %5
  %26 = landingpad { ptr, i32 }
          cleanup
  call void @_ZN7Imf_3_414RgbaOutputFileD1Ev(ptr noundef nonnull align 8 dereferenceable(24) %7) #36
  call void @llvm.lifetime.end.p0(i64 24, ptr nonnull %7) #36
  call void @llvm.lifetime.end.p0(i64 16, ptr nonnull %6) #36
  resume { ptr, i32 } %26
}